; Function Attrs: mustprogress uwtable
define noundef zeroext i1 @_ZNK32pxrInternal_v0_24__pxrReserved__7SdfPath24IsNamespacedPropertyPathEv(ptr nocapture noundef nonnull readonly align 4 dereferenceable(8) %0) local_unnamed_addr #0 align 2 personality ptr @__gxx_personality_v0 {
  %2 = getelementptr inbounds nuw i8, ptr %0, i64 4
  %3 = load i32, ptr %2, align 4
  %4 = and i32 %3, 255
  %5 = lshr i32 %3, 8
  %6 = zext nneg i32 %4 to i64
  %7 = getelementptr inbounds [257 x ptr], ptr @_ZN32pxrInternal_v0_24__pxrReserved__8Sdf_PoolINS_15Sdf_PathPropTagELj24ELj8ELj16384EE13_regionStartsE, i64 0, i64 %6
  %8 = load ptr, ptr %7, align 8
  %9 = mul nuw nsw i32 %5, 24
  %10 = zext nneg i32 %9 to i64
  %11 = getelementptr inbounds i8, ptr %8, i64 %10
  %.not = icmp eq ptr %8, null
  br i1 %.not, label %_ZNK32pxrInternal_v0_24__pxrReserved__12Sdf_PathNode12IsNamespacedEv.exit.thread, label %12

12:                                               ; preds = %1
  %13 = getelementptr inbounds nuw i8, ptr %11, i64 14
  %14 = load i8, ptr %13, align 2
  switch i8 %14, label %_ZNK32pxrInternal_v0_24__pxrReserved__12Sdf_PathNode12IsNamespacedEv.exit.thread [
    i8 6, label %_ZNK32pxrInternal_v0_24__pxrReserved__12Sdf_PathNode12IsNamespacedEv.exit
    i8 3, label %_ZNK32pxrInternal_v0_24__pxrReserved__12Sdf_PathNode12IsNamespacedEv.exit
  ]

_ZNK32pxrInternal_v0_24__pxrReserved__12Sdf_PathNode12IsNamespacedEv.exit: ; preds = %12, %12
  %15 = tail call noundef zeroext i1 @_ZNK32pxrInternal_v0_24__pxrReserved__12Sdf_PathNode17_IsNamespacedImplEv(ptr noundef nonnull align 8 dereferenceable(16) %11)
  br i1 %15, label %16, label %_ZNK32pxrInternal_v0_24__pxrReserved__12Sdf_PathNode12IsNamespacedEv.exit.thread

16:                                               ; preds = %_ZNK32pxrInternal_v0_24__pxrReserved__12Sdf_PathNode12IsNamespacedEv.exit
  %17 = load i8, ptr %13, align 2
  %18 = icmp eq i8 %17, 3
  %19 = icmp eq i8 %17, 6
  %spec.select = or i1 %18, %19
  br label %_ZNK32pxrInternal_v0_24__pxrReserved__12Sdf_PathNode12IsNamespacedEv.exit.thread

_ZNK32pxrInternal_v0_24__pxrReserved__12Sdf_PathNode12IsNamespacedEv.exit.thread: ; preds = %16, %12, %1, %_ZNK32pxrInternal_v0_24__pxrReserved__12Sdf_PathNode12IsNamespacedEv.exit
  %.0 = phi i1 [ false, %_ZNK32pxrInternal_v0_24__pxrReserved__12Sdf_PathNode12IsNamespacedEv.exit ], [ false, %1 ], [ false, %12 ], [ %spec.select, %16 ]
  ret i1 %.0
}